target datalayout = "e-m:e-p270:32:32-p271:32:32-p272:64:64-i64:64-i128:128-f80:128-n8:16:32:64-S128"
target triple = "x86_64-pc-linux-gnu"

%struct.X509_VERIFY_PARAM_st = type { ptr, i64, i32, i64, i32, i32, i32, i32, ptr, ptr, i32, ptr, ptr, i64, ptr, i64 }

@param_table = internal global ptr null, align 8

; Function Attrs: nounwind uwtable
define internal ptr @OBJ_bsearch_table(ptr noundef %0, ptr noundef %1, i32 noundef %2) #0 {
  %4 = alloca ptr, align 8
  %5 = alloca ptr, align 8
  %6 = alloca i32, align 4
  store ptr %0, ptr %4, align 8, !tbaa !3
  store ptr %1, ptr %5, align 8, !tbaa !3
  store i32 %2, ptr %6, align 4, !tbaa !28
  %7 = load ptr, ptr %4, align 8, !tbaa !3
  %8 = load ptr, ptr %5, align 8, !tbaa !3
  %9 = load i32, ptr %6, align 4, !tbaa !28
  %10 = call ptr @OBJ_bsearch_(ptr noundef %7, ptr noundef %8, i32 noundef %9, i32 noundef 112, ptr noundef @table_cmp_BSEARCH_CMP_FN)
  ret ptr %10
}

; Function Attrs: inlinehint nounwind uwtable
define internal ptr @ossl_check_const_X509_VERIFY_PARAM_sk_type(ptr noundef %0) #3 {
  %2 = alloca ptr, align 8
  store ptr %0, ptr %2, align 8, !tbaa !45
  %3 = load ptr, ptr %2, align 8, !tbaa !45
  ret ptr %3
}

; Function Attrs: inlinehint nounwind uwtable
define internal ptr @ossl_check_X509_VERIFY_PARAM_type(ptr noundef %0) #3 {
  %2 = alloca ptr, align 8
  store ptr %0, ptr %2, align 8, !tbaa !3
  %3 = load ptr, ptr %2, align 8, !tbaa !3
  ret ptr %3
}

; Function Attrs: inlinehint nounwind uwtable
define internal ptr @ossl_check_X509_VERIFY_PARAM_sk_type(ptr noundef %0) #3 {
  %2 = alloca ptr, align 8
  store ptr %0, ptr %2, align 8, !tbaa !45
  %3 = load ptr, ptr %2, align 8, !tbaa !45
  ret ptr %3
}

; Function Attrs: nounwind uwtable
define ptr @X509_VERIFY_PARAM_lookup(ptr noundef %0) #0 {
  %2 = alloca ptr, align 8
  %3 = alloca ptr, align 8
  %4 = alloca i32, align 4
  %5 = alloca %struct.X509_VERIFY_PARAM_st, align 8
  %6 = alloca i32, align 4
  store ptr %0, ptr %3, align 8, !tbaa !25
  call void @llvm.lifetime.start.p0(i64 4, ptr %4) #6
  call void @llvm.lifetime.start.p0(i64 112, ptr %5) #6
  %7 = load ptr, ptr %3, align 8, !tbaa !25
  %8 = getelementptr inbounds nuw %struct.X509_VERIFY_PARAM_st, ptr %5, i32 0, i32 0
  store ptr %7, ptr %8, align 8, !tbaa !39
  %9 = load ptr, ptr @param_table, align 8, !tbaa !45
  %10 = icmp ne ptr %9, null
  br i1 %10, label %11, label %26

11:                                               ; preds = %1
  %12 = load ptr, ptr @param_table, align 8, !tbaa !45
  %13 = call ptr @ossl_check_X509_VERIFY_PARAM_sk_type(ptr noundef %12)
  call void @OPENSSL_sk_sort(ptr noundef %13)
  %14 = load ptr, ptr @param_table, align 8, !tbaa !45
  %15 = call ptr @ossl_check_X509_VERIFY_PARAM_sk_type(ptr noundef %14)
  %16 = call ptr @ossl_check_X509_VERIFY_PARAM_type(ptr noundef %5)
  %17 = call i32 @OPENSSL_sk_find(ptr noundef %15, ptr noundef %16)
  store i32 %17, ptr %4, align 4, !tbaa !28
  %18 = load i32, ptr %4, align 4, !tbaa !28
  %19 = icmp sge i32 %18, 0
  br i1 %19, label %20, label %25

20:                                               ; preds = %11
  %21 = load ptr, ptr @param_table, align 8, !tbaa !45
  %22 = call ptr @ossl_check_const_X509_VERIFY_PARAM_sk_type(ptr noundef %21)
  %23 = load i32, ptr %4, align 4, !tbaa !28
  %24 = call ptr @OPENSSL_sk_value(ptr noundef %22, i32 noundef %23)
  store ptr %24, ptr %2, align 8
  store i32 1, ptr %6, align 4
  br label %28

25:                                               ; preds = %11
  br label %26

26:                                               ; preds = %25, %1
  %27 = call ptr @OBJ_bsearch_table(ptr noundef %5, ptr noundef @default_table, i32 noundef 6)
  store ptr %27, ptr %2, align 8
  store i32 1, ptr %6, align 4
  br label %28

28:                                               ; preds = %26, %20
  call void @llvm.lifetime.end.p0(i64 112, ptr %5) #6
  call void @llvm.lifetime.end.p0(i64 4, ptr %4) #6
  %29 = load ptr, ptr %2, align 8
  ret ptr %29
}