; Function Attrs: nounwind uwtable
define ptr @X509_VERIFY_PARAM_lookup(ptr noundef %0) local_unnamed_addr #0 {
  %2 = alloca %struct.X509_VERIFY_PARAM_st, align 8
  call void @llvm.lifetime.start.p0(i64 112, ptr nonnull %2) #9
  store ptr %0, ptr %2, align 8, !tbaa !32
  %3 = load ptr, ptr @param_table, align 8, !tbaa !33
  %.not = icmp eq ptr %3, null
  br i1 %.not, label %11, label %4

4:                                                ; preds = %1
  tail call void @OPENSSL_sk_sort(ptr noundef nonnull %3) #9
  %5 = load ptr, ptr @param_table, align 8, !tbaa !33
  %6 = call i32 @OPENSSL_sk_find(ptr noundef %5, ptr noundef nonnull %2) #9
  %7 = icmp sgt i32 %6, -1
  br i1 %7, label %8, label %11

8:                                                ; preds = %4
  %9 = load ptr, ptr @param_table, align 8, !tbaa !33
  %10 = call ptr @OPENSSL_sk_value(ptr noundef %9, i32 noundef %6) #9
  br label %13

11:                                               ; preds = %4, %1
  %12 = call ptr @OBJ_bsearch_(ptr noundef nonnull %2, ptr noundef nonnull @default_table, i32 noundef 6, i32 noundef 112, ptr noundef nonnull @table_cmp_BSEARCH_CMP_FN) #9
  br label %13

13:                                               ; preds = %11, %8
  %.0 = phi ptr [ %10, %8 ], [ %12, %11 ]
  call void @llvm.lifetime.end.p0(i64 112, ptr nonnull %2) #9
  ret ptr %.0
}